#include <math.h>
#include <stdio.h>
#include <stdlib.h>
#include <string.h>

void main()
{
	int i,j,k,n,a[300];
	scanf("%d",&n);
	for (i=0;i<n;i++)
	scanf("%d",&a[i]);
	printf("\n");
 
	for (i=0;i<n;i++)
	
	 for (j=1;j<n-i;j++)
	 
		if (a[i]==a[i+j])
		{
			
			for (k=i+j;k<n-1;k++)
		 
			 a[ k]=a[k+1 ];
			 
			 j=j-1;
				n=n-1;
	 
		}
		for (i=0;i<n-1;i++)
		printf("%d,",a[i]);
		printf("%d",a[n-1]);
}